target datalayout = "e-m:e-p270:32:32-p271:32:32-p272:64:64-i64:64-i128:128-f80:128-n8:16:32:64-S128"
target triple = "x86_64-pc-linux-gnu"

%struct.jit_State = type { %struct.GCtrace, ptr, ptr, ptr, ptr, ptr, ptr, i32, i32, i32, i8, i8, %struct.IRType1, i8, %struct.FoldState, ptr, i32, i32, i32, i32, i32, i32, i32, [1 x i32], [5 x %union.TValue], [3 x %union.TValue], ptr, i32, i32, i32, i32, ptr, ptr, i32, i32, i8, ptr, i32, i32, i16, [101 x i16], [258 x i32], [15 x i32], [16 x ptr], [64 x %struct.HotPenalty], i32, [16 x %struct.BPropEntry], i32, %struct.ScEvEntry, ptr, i32, i32, i32, ptr, i32, i32, ptr, ptr, ptr, i64, i64, %union.TValue, ptr, i32, i32 }
%struct.GCtrace = type { %struct.GCRef, i8, i8, i16, i32, i32, %struct.GCRef, ptr, i32, i32, ptr, ptr, %struct.GCRef, %struct.MRef, i32, i32, ptr, i32, i16, i16, i16, i16, i16, i16, i16, i8, i8, i8, i8 }
%struct.GCRef = type { i64 }
%struct.MRef = type { i64 }
%struct.IRType1 = type { i8 }
%struct.FoldState = type { %union.IRIns, [2 x %union.IRIns], [2 x %union.IRIns] }
%union.IRIns = type { %struct.GCRef }
%struct.HotPenalty = type { %struct.MRef, i16, i16 }
%struct.BPropEntry = type { i16, i16, i32 }
%struct.ScEvEntry = type { %struct.MRef, i16, i16, i16, i16, %struct.IRType1, i8 }
%union.TValue = type { i64 }
%struct.anon = type { i16, i16, i16, i16 }
%struct.anon.0 = type { i32, %struct.IRType1, i8, i8, i8 }

; Function Attrs: alwaysinline nounwind uwtable
define internal void @lj_ir_nop(ptr noundef %0) #3 {
  %2 = alloca ptr, align 8
  store ptr %0, ptr %2, align 8, !tbaa !32
  %3 = load ptr, ptr %2, align 8, !tbaa !32
  %4 = getelementptr inbounds nuw %struct.anon, ptr %3, i32 0, i32 2
  store i16 3072, ptr %4, align 4, !tbaa !11
  %5 = load ptr, ptr %2, align 8, !tbaa !32
  %6 = getelementptr inbounds nuw %struct.anon, ptr %5, i32 0, i32 1
  store i16 0, ptr %6, align 2, !tbaa !11
  %7 = load ptr, ptr %2, align 8, !tbaa !32
  %8 = getelementptr inbounds nuw %struct.anon, ptr %7, i32 0, i32 0
  store i16 0, ptr %8, align 8, !tbaa !11
  %9 = load ptr, ptr %2, align 8, !tbaa !32
  %10 = getelementptr inbounds nuw %struct.anon, ptr %9, i32 0, i32 3
  store i16 0, ptr %10, align 2, !tbaa !11
  ret void
}

; Function Attrs: nounwind uwtable
define hidden i32 @lj_opt_dse_xstore(ptr noundef %0) #0 {
  %2 = alloca i32, align 4
  %3 = alloca ptr, align 8
  %4 = alloca i32, align 4
  %5 = alloca ptr, align 8
  %6 = alloca i32, align 4
  %7 = alloca i32, align 4
  %8 = alloca ptr, align 8
  %9 = alloca i32, align 4
  %10 = alloca ptr, align 8
  %11 = alloca i32, align 4
  %12 = alloca ptr, align 8
  store ptr %0, ptr %3, align 8, !tbaa !4
  call void @llvm.lifetime.start.p0(i64 4, ptr %4) #5
  %13 = load ptr, ptr %3, align 8, !tbaa !4
  %14 = getelementptr inbounds nuw %struct.jit_State, ptr %13, i32 0, i32 14
  %15 = getelementptr inbounds nuw %struct.FoldState, ptr %14, i32 0, i32 0
  %16 = getelementptr inbounds nuw %struct.anon, ptr %15, i32 0, i32 0
  %17 = load i16, ptr %16, align 8, !tbaa !11
  %18 = zext i16 %17 to i32
  store i32 %18, ptr %4, align 4, !tbaa !9
  call void @llvm.lifetime.start.p0(i64 8, ptr %5) #5
  %19 = load ptr, ptr %3, align 8, !tbaa !4
  %20 = getelementptr inbounds nuw %struct.jit_State, ptr %19, i32 0, i32 0
  %21 = getelementptr inbounds nuw %struct.GCtrace, ptr %20, i32 0, i32 7
  %22 = load ptr, ptr %21, align 8, !tbaa !14
  %23 = load i32, ptr %4, align 4, !tbaa !9
  %24 = zext i32 %23 to i64
  %25 = getelementptr inbounds nuw %union.IRIns, ptr %22, i64 %24
  store ptr %25, ptr %5, align 8, !tbaa !32
  call void @llvm.lifetime.start.p0(i64 4, ptr %6) #5
  %26 = load i32, ptr %4, align 4, !tbaa !9
  store i32 %26, ptr %6, align 4, !tbaa !9
  call void @llvm.lifetime.start.p0(i64 4, ptr %7) #5
  %27 = load ptr, ptr %3, align 8, !tbaa !4
  %28 = getelementptr inbounds nuw %struct.jit_State, ptr %27, i32 0, i32 14
  %29 = getelementptr inbounds nuw %struct.FoldState, ptr %28, i32 0, i32 0
  %30 = getelementptr inbounds nuw %struct.anon, ptr %29, i32 0, i32 1
  %31 = load i16, ptr %30, align 2, !tbaa !11
  %32 = zext i16 %31 to i32
  store i32 %32, ptr %7, align 4, !tbaa !9
  call void @llvm.lifetime.start.p0(i64 8, ptr %8) #5
  %33 = load ptr, ptr %3, align 8, !tbaa !4
  %34 = getelementptr inbounds nuw %struct.jit_State, ptr %33, i32 0, i32 40
  %35 = getelementptr inbounds [101 x i16], ptr %34, i64 0, i64 78
  store ptr %35, ptr %8, align 8, !tbaa !47
  call void @llvm.lifetime.start.p0(i64 4, ptr %9) #5
  %36 = load ptr, ptr %8, align 8, !tbaa !47
  %37 = load i16, ptr %36, align 2, !tbaa !12
  %38 = zext i16 %37 to i32
  store i32 %38, ptr %9, align 4, !tbaa !9
  %39 = load ptr, ptr %3, align 8, !tbaa !4
  %40 = getelementptr inbounds nuw %struct.jit_State, ptr %39, i32 0, i32 40
  %41 = getelementptr inbounds [101 x i16], ptr %40, i64 0, i64 99
  %42 = load i16, ptr %41, align 2, !tbaa !12
  %43 = zext i16 %42 to i32
  %44 = load i32, ptr %6, align 4, !tbaa !9
  %45 = icmp ugt i32 %43, %44
  br i1 %45, label %46, label %52

46:                                               ; preds = %1
  %47 = load ptr, ptr %3, align 8, !tbaa !4
  %48 = getelementptr inbounds nuw %struct.jit_State, ptr %47, i32 0, i32 40
  %49 = getelementptr inbounds [101 x i16], ptr %48, i64 0, i64 99
  %50 = load i16, ptr %49, align 2, !tbaa !12
  %51 = zext i16 %50 to i32
  store i32 %51, ptr %6, align 4, !tbaa !9
  br label %52

52:                                               ; preds = %46, %1
  %53 = load ptr, ptr %3, align 8, !tbaa !4
  %54 = getelementptr inbounds nuw %struct.jit_State, ptr %53, i32 0, i32 40
  %55 = getelementptr inbounds [101 x i16], ptr %54, i64 0, i64 90
  %56 = load i16, ptr %55, align 2, !tbaa !12
  %57 = zext i16 %56 to i32
  %58 = load i32, ptr %6, align 4, !tbaa !9
  %59 = icmp ugt i32 %57, %58
  br i1 %59, label %60, label %66

60:                                               ; preds = %52
  %61 = load ptr, ptr %3, align 8, !tbaa !4
  %62 = getelementptr inbounds nuw %struct.jit_State, ptr %61, i32 0, i32 40
  %63 = getelementptr inbounds [101 x i16], ptr %62, i64 0, i64 90
  %64 = load i16, ptr %63, align 2, !tbaa !12
  %65 = zext i16 %64 to i32
  store i32 %65, ptr %6, align 4, !tbaa !9
  br label %66

66:                                               ; preds = %60, %52
  %67 = load ptr, ptr %3, align 8, !tbaa !4
  %68 = getelementptr inbounds nuw %struct.jit_State, ptr %67, i32 0, i32 40
  %69 = getelementptr inbounds [101 x i16], ptr %68, i64 0, i64 80
  %70 = load i16, ptr %69, align 2, !tbaa !12
  %71 = zext i16 %70 to i32
  %72 = load i32, ptr %6, align 4, !tbaa !9
  %73 = icmp ugt i32 %71, %72
  br i1 %73, label %74, label %80

74:                                               ; preds = %66
  %75 = load ptr, ptr %3, align 8, !tbaa !4
  %76 = getelementptr inbounds nuw %struct.jit_State, ptr %75, i32 0, i32 40
  %77 = getelementptr inbounds [101 x i16], ptr %76, i64 0, i64 80
  %78 = load i16, ptr %77, align 2, !tbaa !12
  %79 = zext i16 %78 to i32
  store i32 %79, ptr %6, align 4, !tbaa !9
  br label %80

80:                                               ; preds = %74, %66
  br label %81

81:                                               ; preds = %177, %80
  %82 = load i32, ptr %9, align 4, !tbaa !9
  %83 = load i32, ptr %6, align 4, !tbaa !9
  %84 = icmp ugt i32 %82, %83
  br i1 %84, label %85, label %178

85:                                               ; preds = %81
  call void @llvm.lifetime.start.p0(i64 8, ptr %10) #5
  %86 = load ptr, ptr %3, align 8, !tbaa !4
  %87 = getelementptr inbounds nuw %struct.jit_State, ptr %86, i32 0, i32 0
  %88 = getelementptr inbounds nuw %struct.GCtrace, ptr %87, i32 0, i32 7
  %89 = load ptr, ptr %88, align 8, !tbaa !14
  %90 = load i32, ptr %9, align 4, !tbaa !9
  %91 = zext i32 %90 to i64
  %92 = getelementptr inbounds nuw %union.IRIns, ptr %89, i64 %91
  store ptr %92, ptr %10, align 8, !tbaa !32
  %93 = load ptr, ptr %3, align 8, !tbaa !4
  %94 = load ptr, ptr %5, align 8, !tbaa !32
  %95 = load ptr, ptr %3, align 8, !tbaa !4
  %96 = getelementptr inbounds nuw %struct.jit_State, ptr %95, i32 0, i32 14
  %97 = getelementptr inbounds nuw %struct.FoldState, ptr %96, i32 0, i32 0
  %98 = load ptr, ptr %10, align 8, !tbaa !32
  %99 = call i32 @aa_xref(ptr noundef %93, ptr noundef %94, ptr noundef %97, ptr noundef %98)
  switch i32 %99, label %170 [
    i32 0, label %170
    i32 1, label %100
    i32 2, label %109
  ]

100:                                              ; preds = %85
  %101 = load ptr, ptr %10, align 8, !tbaa !32
  %102 = getelementptr inbounds nuw %struct.anon, ptr %101, i32 0, i32 1
  %103 = load i16, ptr %102, align 2, !tbaa !11
  %104 = zext i16 %103 to i32
  %105 = load i32, ptr %7, align 4, !tbaa !9
  %106 = icmp ne i32 %104, %105
  br i1 %106, label %107, label %108

107:                                              ; preds = %100
  store i32 5, ptr %11, align 4
  br label %175

108:                                              ; preds = %100
  br label %170

109:                                              ; preds = %85
  %110 = load ptr, ptr %10, align 8, !tbaa !32
  %111 = getelementptr inbounds nuw %struct.anon, ptr %110, i32 0, i32 1
  %112 = load i16, ptr %111, align 2, !tbaa !11
  %113 = zext i16 %112 to i32
  %114 = load i32, ptr %7, align 4, !tbaa !9
  %115 = icmp eq i32 %113, %114
  br i1 %115, label %116, label %117

116:                                              ; preds = %109
  store i32 4, ptr %2, align 4
  store i32 1, ptr %11, align 4
  br label %175

117:                                              ; preds = %109
  %118 = load i32, ptr %9, align 4, !tbaa !9
  %119 = load ptr, ptr %3, align 8, !tbaa !4
  %120 = getelementptr inbounds nuw %struct.jit_State, ptr %119, i32 0, i32 40
  %121 = getelementptr inbounds [101 x i16], ptr %120, i64 0, i64 17
  %122 = load i16, ptr %121, align 2, !tbaa !12
  %123 = zext i16 %122 to i32
  %124 = icmp ugt i32 %118, %123
  br i1 %124, label %125, label %169

125:                                              ; preds = %117
  call void @llvm.lifetime.start.p0(i64 8, ptr %12) #5
  %126 = load ptr, ptr %3, align 8, !tbaa !4
  %127 = getelementptr inbounds nuw %struct.jit_State, ptr %126, i32 0, i32 0
  %128 = getelementptr inbounds nuw %struct.GCtrace, ptr %127, i32 0, i32 7
  %129 = load ptr, ptr %128, align 8, !tbaa !14
  %130 = load ptr, ptr %3, align 8, !tbaa !4
  %131 = getelementptr inbounds nuw %struct.jit_State, ptr %130, i32 0, i32 0
  %132 = getelementptr inbounds nuw %struct.GCtrace, ptr %131, i32 0, i32 4
  %133 = load i32, ptr %132, align 4, !tbaa !49
  %134 = sub i32 %133, 1
  %135 = zext i32 %134 to i64
  %136 = getelementptr inbounds nuw %union.IRIns, ptr %129, i64 %135
  store ptr %136, ptr %12, align 8, !tbaa !32
  br label %137

137:                                              ; preds = %157, %125
  %138 = load ptr, ptr %12, align 8, !tbaa !32
  %139 = load ptr, ptr %10, align 8, !tbaa !32
  %140 = icmp ugt ptr %138, %139
  br i1 %140, label %141, label %160

141:                                              ; preds = %137
  %142 = load ptr, ptr %12, align 8, !tbaa !32
  %143 = getelementptr inbounds nuw %struct.anon.0, ptr %142, i32 0, i32 1
  %144 = getelementptr inbounds nuw %struct.IRType1, ptr %143, i32 0, i32 0
  %145 = load i8, ptr %144, align 4, !tbaa !11
  %146 = zext i8 %145 to i32
  %147 = and i32 %146, 128
  %148 = icmp ne i32 %147, 0
  br i1 %148, label %155, label %149

149:                                              ; preds = %141
  %150 = load ptr, ptr %12, align 8, !tbaa !32
  %151 = getelementptr inbounds nuw %struct.anon.0, ptr %150, i32 0, i32 2
  %152 = load i8, ptr %151, align 1, !tbaa !11
  %153 = zext i8 %152 to i32
  %154 = icmp eq i32 %153, 70
  br i1 %154, label %155, label %156

155:                                              ; preds = %149, %141
  store i32 5, ptr %11, align 4
  br label %166

156:                                              ; preds = %149
  br label %157

157:                                              ; preds = %156
  %158 = load ptr, ptr %12, align 8, !tbaa !32
  %159 = getelementptr inbounds %union.IRIns, ptr %158, i32 -1
  store ptr %159, ptr %12, align 8, !tbaa !32
  br label %137, !llvm.loop !71

160:                                              ; preds = %137
  %161 = load ptr, ptr %10, align 8, !tbaa !32
  %162 = getelementptr inbounds nuw %struct.anon, ptr %161, i32 0, i32 3
  %163 = load i16, ptr %162, align 2, !tbaa !11
  %164 = load ptr, ptr %8, align 8, !tbaa !47
  store i16 %163, ptr %164, align 2, !tbaa !12
  %165 = load ptr, ptr %10, align 8, !tbaa !32
  call void @lj_ir_nop(ptr noundef %165)
  store i32 0, ptr %11, align 4
  br label %166

166:                                              ; preds = %155, %160
  call void @llvm.lifetime.end.p0(i64 8, ptr %12) #5
  %167 = load i32, ptr %11, align 4
  switch i32 %167, label %175 [
    i32 0, label %168
  ]

168:                                              ; preds = %166
  br label %169

169:                                              ; preds = %168, %117
  store i32 5, ptr %11, align 4
  br label %175

170:                                              ; preds = %85, %108, %85
  %171 = load ptr, ptr %10, align 8, !tbaa !32
  %172 = getelementptr inbounds nuw %struct.anon, ptr %171, i32 0, i32 3
  store ptr %172, ptr %8, align 8, !tbaa !47
  %173 = load i16, ptr %172, align 2, !tbaa !12
  %174 = zext i16 %173 to i32
  store i32 %174, ptr %9, align 4, !tbaa !9
  store i32 0, ptr %11, align 4
  br label %175

175:                                              ; preds = %169, %107, %170, %166, %116
  call void @llvm.lifetime.end.p0(i64 8, ptr %10) #5
  %176 = load i32, ptr %11, align 4
  switch i32 %176, label %182 [
    i32 0, label %177
    i32 5, label %179
  ]

177:                                              ; preds = %175
  br label %81, !llvm.loop !72

178:                                              ; preds = %81
  br label %179

179:                                              ; preds = %178, %175
  %180 = load ptr, ptr %3, align 8, !tbaa !4
  %181 = call i32 @lj_ir_emit(ptr noundef %180)
  store i32 %181, ptr %2, align 4
  store i32 1, ptr %11, align 4
  br label %182

182:                                              ; preds = %179, %175
  call void @llvm.lifetime.end.p0(i64 4, ptr %9) #5
  call void @llvm.lifetime.end.p0(i64 8, ptr %8) #5
  call void @llvm.lifetime.end.p0(i64 4, ptr %7) #5
  call void @llvm.lifetime.end.p0(i64 4, ptr %6) #5
  call void @llvm.lifetime.end.p0(i64 8, ptr %5) #5
  call void @llvm.lifetime.end.p0(i64 4, ptr %4) #5
  %183 = load i32, ptr %2, align 4
  ret i32 %183
}