; Function Attrs: nounwind uwtable
define hidden i32 @lj_opt_dse_xstore(ptr noundef %0) local_unnamed_addr #2 {
  %2 = getelementptr inbounds nuw i8, ptr %0, i64 184
  %3 = load i16, ptr %2, align 8, !tbaa !4
  %4 = getelementptr inbounds nuw i8, ptr %0, i64 32
  %5 = load ptr, ptr %4, align 8, !tbaa !7
  %6 = zext i16 %3 to i64
  %7 = getelementptr inbounds nuw %union.IRIns, ptr %5, i64 %6
  %8 = getelementptr inbounds nuw i8, ptr %0, i64 186
  %9 = load i16, ptr %8, align 2, !tbaa !4
  %10 = getelementptr inbounds nuw i8, ptr %0, i64 558
  %11 = getelementptr inbounds nuw i8, ptr %0, i64 600
  %12 = load i16, ptr %11, align 2, !tbaa !33
  %spec.select = tail call i16 @llvm.umax.i16(i16 %12, i16 %3)
  %13 = getelementptr inbounds nuw i8, ptr %0, i64 582
  %14 = load i16, ptr %13, align 2, !tbaa !33
  %.152.in = tail call i16 @llvm.umax.i16(i16 %14, i16 %spec.select)
  %15 = getelementptr inbounds nuw i8, ptr %0, i64 562
  %16 = load i16, ptr %15, align 2, !tbaa !33
  %.253.in = tail call i16 @llvm.umax.i16(i16 %16, i16 %.152.in)
  %.047.in75 = load i16, ptr %10, align 2, !tbaa !33
  %17 = icmp ugt i16 %.047.in75, %.253.in
  br i1 %17, label %.lr.ph, label %.thread63

.lr.ph:                                           ; preds = %1, %49
  %.047.in77 = phi i16 [ %.047.in, %49 ], [ %.047.in75, %1 ]
  %.04976 = phi ptr [ %50, %49 ], [ %10, %1 ]
  %18 = zext i16 %.047.in77 to i64
  %19 = getelementptr inbounds nuw %union.IRIns, ptr %5, i64 %18
  %20 = tail call fastcc i32 @aa_xref(ptr noundef nonnull %0, ptr noundef %7, ptr noundef nonnull %2, ptr noundef nonnull %19)
  switch i32 %20, label %49 [
    i32 2, label %24
    i32 1, label %21
  ]

21:                                               ; preds = %.lr.ph
  %22 = getelementptr inbounds nuw i8, ptr %19, i64 2
  %23 = load i16, ptr %22, align 2, !tbaa !4
  %.not = icmp eq i16 %23, %9
  br i1 %.not, label %49, label %.thread63

24:                                               ; preds = %.lr.ph
  %25 = getelementptr inbounds nuw i8, ptr %19, i64 2
  %26 = load i16, ptr %25, align 2, !tbaa !4
  %27 = icmp eq i16 %26, %9
  br i1 %27, label %.thread67, label %28

28:                                               ; preds = %24
  %29 = getelementptr inbounds nuw i8, ptr %0, i64 436
  %30 = load i16, ptr %29, align 2, !tbaa !33
  %31 = icmp ugt i16 %.047.in77, %30
  br i1 %31, label %32, label %.thread63

32:                                               ; preds = %28
  %33 = getelementptr inbounds nuw i8, ptr %0, i64 12
  %34 = load i32, ptr %33, align 4, !tbaa !38
  %35 = add i32 %34, -1
  %36 = zext i32 %35 to i64
  %.not6079 = icmp samesign ugt i64 %36, %18
  br i1 %.not6079, label %.lr.ph81.preheader, label %._crit_edge

.lr.ph81.preheader:                               ; preds = %32
  %37 = getelementptr inbounds nuw %union.IRIns, ptr %5, i64 %36
  br label %.lr.ph81

38:                                               ; preds = %42
  %39 = getelementptr inbounds i8, ptr %.080, i64 -8
  %.not60 = icmp ugt ptr %39, %19
  br i1 %.not60, label %.lr.ph81, label %._crit_edge, !llvm.loop !51

.lr.ph81:                                         ; preds = %.lr.ph81.preheader, %38
  %.080 = phi ptr [ %39, %38 ], [ %37, %.lr.ph81.preheader ]
  %40 = getelementptr inbounds nuw i8, ptr %.080, i64 4
  %41 = load i8, ptr %40, align 4, !tbaa !4
  %.not59 = icmp sgt i8 %41, -1
  br i1 %.not59, label %42, label %.thread63

42:                                               ; preds = %.lr.ph81
  %43 = getelementptr inbounds nuw i8, ptr %.080, i64 5
  %44 = load i8, ptr %43, align 1, !tbaa !4
  %45 = icmp eq i8 %44, 70
  br i1 %45, label %.thread63, label %38

._crit_edge:                                      ; preds = %38, %32
  %46 = getelementptr inbounds nuw i8, ptr %19, i64 6
  %47 = load i16, ptr %46, align 2, !tbaa !4
  store i16 %47, ptr %.04976, align 2, !tbaa !33
  %48 = getelementptr inbounds nuw i8, ptr %19, i64 4
  store i16 3072, ptr %48, align 4, !tbaa !4
  store i16 0, ptr %25, align 2, !tbaa !4
  store i16 0, ptr %19, align 8, !tbaa !4
  store i16 0, ptr %46, align 2, !tbaa !4
  br label %.thread63

49:                                               ; preds = %.lr.ph, %21
  %50 = getelementptr inbounds nuw i8, ptr %19, i64 6
  %.047.in = load i16, ptr %50, align 2, !tbaa !33
  %51 = icmp ugt i16 %.047.in, %.253.in
  br i1 %51, label %.lr.ph, label %.thread63

.thread63:                                        ; preds = %49, %21, %42, %.lr.ph81, %1, %28, %._crit_edge
  %52 = tail call i32 @lj_ir_emit(ptr noundef %0) #6
  br label %.thread67

.thread67:                                        ; preds = %24, %.thread63
  %.2 = phi i32 [ %52, %.thread63 ], [ 4, %24 ]
  ret i32 %.2
}